target datalayout = "e-m:e-p270:32:32-p271:32:32-p272:64:64-i64:64-i128:128-f80:128-n8:16:32:64-S128"
target triple = "x86_64-pc-linux-gnu"

%struct.test_fixture = type { ptr, ptr, ptr, i32, i32, ptr }

@client_cert = internal global ptr null, align 8
@.str.14 = private unnamed_addr constant [34 x i8] c"../openssl/test/cmp_client_test.c\00", align 1
@.str.45 = private unnamed_addr constant [22 x i8] c"test_try_certreq_poll\00", align 1
@.str.65 = private unnamed_addr constant [18 x i8] c"fixture->expected\00", align 1
@.str.69 = private unnamed_addr constant [2 x i8] c"0\00", align 1
@.str.79 = private unnamed_addr constant [3 x i8] c"-1\00", align 1
@.str.80 = private unnamed_addr constant [52 x i8] c"OSSL_CMP_try_certreq(ctx, TYPE, NULL, &check_after)\00", align 1
@.str.81 = private unnamed_addr constant [31 x i8] c"OSSL_CMP_CTX_get0_newCert(ctx)\00", align 1
@.str.82 = private unnamed_addr constant [5 x i8] c"NULL\00", align 1
@.str.83 = private unnamed_addr constant [44 x i8] c"OSSL_CMP_try_certreq(ctx, TYPE, NULL, NULL)\00", align 1
@.str.84 = private unnamed_addr constant [54 x i8] c"X509_cmp(OSSL_CMP_CTX_get0_newCert(ctx), client_cert)\00", align 1

; Function Attrs: inlinehint nounwind uwtable
define internal ptr @ossl_check_X509_sk_type(ptr noundef %0) #3 {
  %2 = alloca ptr, align 8
  store ptr %0, ptr %2, align 8, !tbaa !32
  %3 = load ptr, ptr %2, align 8, !tbaa !32
  ret ptr %3
}

; Function Attrs: nounwind uwtable
define internal void @tear_down(ptr noundef %0) #0 {
  %2 = alloca ptr, align 8
  store ptr %0, ptr %2, align 8, !tbaa !17
  %3 = load ptr, ptr %2, align 8, !tbaa !17
  %4 = getelementptr inbounds nuw %struct.test_fixture, ptr %3, i32 0, i32 1
  %5 = load ptr, ptr %4, align 8, !tbaa !29
  call void @OSSL_CMP_CTX_free(ptr noundef %5)
  %6 = load ptr, ptr %2, align 8, !tbaa !17
  %7 = getelementptr inbounds nuw %struct.test_fixture, ptr %6, i32 0, i32 2
  %8 = load ptr, ptr %7, align 8, !tbaa !21
  call void @ossl_cmp_mock_srv_free(ptr noundef %8)
  %9 = load ptr, ptr %2, align 8, !tbaa !17
  %10 = getelementptr inbounds nuw %struct.test_fixture, ptr %9, i32 0, i32 5
  %11 = load ptr, ptr %10, align 8, !tbaa !28
  %12 = call ptr @ossl_check_X509_sk_type(ptr noundef %11)
  call void @OPENSSL_sk_free(ptr noundef %12)
  %13 = load ptr, ptr %2, align 8, !tbaa !17
  call void @CRYPTO_free(ptr noundef %13, ptr noundef @.str.14, i32 noundef 51)
  ret void
}

; Function Attrs: nounwind uwtable
define internal i32 @execute_try_certreq_poll_test(ptr noundef %0) #0 {
  %2 = alloca ptr, align 8
  %3 = alloca ptr, align 8
  %4 = alloca i32, align 4
  %5 = alloca i32, align 4
  %6 = alloca i32, align 4
  store ptr %0, ptr %2, align 8, !tbaa !17
  call void @llvm.lifetime.start.p0(i64 8, ptr %3) #4
  %7 = load ptr, ptr %2, align 8, !tbaa !17
  %8 = getelementptr inbounds nuw %struct.test_fixture, ptr %7, i32 0, i32 1
  %9 = load ptr, ptr %8, align 8, !tbaa !29
  store ptr %9, ptr %3, align 8, !tbaa !30
  call void @llvm.lifetime.start.p0(i64 4, ptr %4) #4
  call void @llvm.lifetime.start.p0(i64 4, ptr %5) #4
  store i32 0, ptr %5, align 4, !tbaa !19
  call void @llvm.lifetime.start.p0(i64 4, ptr %6) #4
  store i32 7, ptr %6, align 4, !tbaa !19
  %10 = load ptr, ptr %2, align 8, !tbaa !17
  %11 = getelementptr inbounds nuw %struct.test_fixture, ptr %10, i32 0, i32 2
  %12 = load ptr, ptr %11, align 8, !tbaa !21
  %13 = call i32 @ossl_cmp_mock_srv_set_pollCount(ptr noundef %12, i32 noundef 3)
  %14 = load ptr, ptr %2, align 8, !tbaa !17
  %15 = getelementptr inbounds nuw %struct.test_fixture, ptr %14, i32 0, i32 2
  %16 = load ptr, ptr %15, align 8, !tbaa !21
  %17 = call i32 @ossl_cmp_mock_srv_set_checkAfterTime(ptr noundef %16, i32 noundef 0)
  %18 = load ptr, ptr %3, align 8, !tbaa !30
  %19 = call i32 @OSSL_CMP_try_certreq(ptr noundef %18, i32 noundef 7, ptr noundef null, ptr noundef %4)
  %20 = call i32 @test_int_eq(ptr noundef @.str.14, i32 noundef 374, ptr noundef @.str.79, ptr noundef @.str.80, i32 noundef -1, i32 noundef %19)
  %21 = icmp ne i32 %20, 0
  br i1 %21, label %22, label %58

22:                                               ; preds = %1
  %23 = load i32, ptr %4, align 4, !tbaa !19
  %24 = icmp eq i32 %23, 0
  br i1 %24, label %25, label %58

25:                                               ; preds = %22
  %26 = load ptr, ptr %3, align 8, !tbaa !30
  %27 = call ptr @OSSL_CMP_CTX_get0_newCert(ptr noundef %26)
  %28 = call i32 @test_ptr_eq(ptr noundef @.str.14, i32 noundef 376, ptr noundef @.str.81, ptr noundef @.str.82, ptr noundef %27, ptr noundef null)
  %29 = icmp ne i32 %28, 0
  br i1 %29, label %30, label %58

30:                                               ; preds = %25
  %31 = load ptr, ptr %3, align 8, !tbaa !30
  %32 = call i32 @OSSL_CMP_try_certreq(ptr noundef %31, i32 noundef 7, ptr noundef null, ptr noundef %4)
  %33 = call i32 @test_int_eq(ptr noundef @.str.14, i32 noundef 377, ptr noundef @.str.79, ptr noundef @.str.80, i32 noundef -1, i32 noundef %32)
  %34 = icmp ne i32 %33, 0
  br i1 %34, label %35, label %58

35:                                               ; preds = %30
  %36 = load i32, ptr %4, align 4, !tbaa !19
  %37 = icmp eq i32 %36, 0
  br i1 %37, label %38, label %58

38:                                               ; preds = %35
  %39 = load ptr, ptr %3, align 8, !tbaa !30
  %40 = call ptr @OSSL_CMP_CTX_get0_newCert(ptr noundef %39)
  %41 = call i32 @test_ptr_eq(ptr noundef @.str.14, i32 noundef 379, ptr noundef @.str.81, ptr noundef @.str.82, ptr noundef %40, ptr noundef null)
  %42 = icmp ne i32 %41, 0
  br i1 %42, label %43, label %58

43:                                               ; preds = %38
  %44 = load ptr, ptr %2, align 8, !tbaa !17
  %45 = getelementptr inbounds nuw %struct.test_fixture, ptr %44, i32 0, i32 4
  %46 = load i32, ptr %45, align 4, !tbaa !26
  %47 = load ptr, ptr %3, align 8, !tbaa !30
  %48 = call i32 @OSSL_CMP_try_certreq(ptr noundef %47, i32 noundef 7, ptr noundef null, ptr noundef null)
  %49 = call i32 @test_int_eq(ptr noundef @.str.14, i32 noundef 381, ptr noundef @.str.65, ptr noundef @.str.83, i32 noundef %46, i32 noundef %48)
  %50 = icmp ne i32 %49, 0
  br i1 %50, label %51, label %58

51:                                               ; preds = %43
  %52 = load ptr, ptr %3, align 8, !tbaa !30
  %53 = call ptr @OSSL_CMP_CTX_get0_newCert(ptr noundef %52)
  %54 = load ptr, ptr @client_cert, align 8, !tbaa !4
  %55 = call i32 @X509_cmp(ptr noundef %53, ptr noundef %54)
  %56 = call i32 @test_int_eq(ptr noundef @.str.14, i32 noundef 383, ptr noundef @.str.69, ptr noundef @.str.84, i32 noundef 0, i32 noundef %55)
  %57 = icmp ne i32 %56, 0
  br label %58

58:                                               ; preds = %51, %43, %38, %35, %30, %25, %22, %1
  %59 = phi i1 [ false, %43 ], [ false, %38 ], [ false, %35 ], [ false, %30 ], [ false, %25 ], [ false, %22 ], [ false, %1 ], [ %57, %51 ]
  %60 = zext i1 %59 to i32
  call void @llvm.lifetime.end.p0(i64 4, ptr %6) #4
  call void @llvm.lifetime.end.p0(i64 4, ptr %5) #4
  call void @llvm.lifetime.end.p0(i64 4, ptr %4) #4
  call void @llvm.lifetime.end.p0(i64 8, ptr %3) #4
  ret i32 %60
}

; Function Attrs: nounwind uwtable
define internal i32 @test_try_certreq_poll() #0 {
  %1 = alloca i32, align 4
  %2 = alloca ptr, align 8
  %3 = alloca i32, align 4
  %4 = alloca i32, align 4
  call void @llvm.lifetime.start.p0(i64 8, ptr %2) #4
  %5 = call ptr @set_up(ptr noundef @.str.45)
  store ptr %5, ptr %2, align 8, !tbaa !17
  call void @llvm.lifetime.start.p0(i64 4, ptr %3) #4
  store i32 0, ptr %3, align 4, !tbaa !19
  %6 = load ptr, ptr %2, align 8, !tbaa !17
  %7 = icmp eq ptr %6, null
  br i1 %7, label %8, label %9

8:                                                ; preds = %0
  store i32 0, ptr %1, align 4
  store i32 1, ptr %4, align 4
  br label %20

9:                                                ; preds = %0
  %10 = load ptr, ptr %2, align 8, !tbaa !17
  %11 = getelementptr inbounds nuw %struct.test_fixture, ptr %10, i32 0, i32 4
  store i32 1, ptr %11, align 4, !tbaa !26
  %12 = load ptr, ptr %2, align 8, !tbaa !17
  %13 = icmp ne ptr %12, null
  br i1 %13, label %14, label %18

14:                                               ; preds = %9
  %15 = load ptr, ptr %2, align 8, !tbaa !17
  %16 = call i32 @execute_try_certreq_poll_test(ptr noundef %15)
  store i32 %16, ptr %3, align 4, !tbaa !19
  %17 = load ptr, ptr %2, align 8, !tbaa !17
  call void @tear_down(ptr noundef %17)
  br label %18

18:                                               ; preds = %14, %9
  %19 = load i32, ptr %3, align 4, !tbaa !19
  store i32 %19, ptr %1, align 4
  store i32 1, ptr %4, align 4
  br label %20

20:                                               ; preds = %18, %8
  call void @llvm.lifetime.end.p0(i64 4, ptr %3) #4
  call void @llvm.lifetime.end.p0(i64 8, ptr %2) #4
  %21 = load i32, ptr %1, align 4
  ret i32 %21
}