; Function Attrs: nounwind uwtable
define internal range(i32 0, 2) i32 @test_try_certreq_poll() #0 {
  %1 = alloca i32, align 4
  %2 = tail call fastcc ptr @set_up(ptr noundef nonnull @.str.45)
  %3 = icmp eq ptr %2, null
  br i1 %3, label %46, label %4

4:                                                ; preds = %0
  %5 = getelementptr inbounds nuw i8, ptr %2, i64 28
  store i32 1, ptr %5, align 4, !tbaa !17
  %6 = getelementptr inbounds nuw i8, ptr %2, i64 8
  %7 = load ptr, ptr %6, align 8, !tbaa !23
  call void @llvm.lifetime.start.p0(i64 4, ptr nonnull %1) #4
  %8 = getelementptr inbounds nuw i8, ptr %2, i64 16
  %9 = load ptr, ptr %8, align 8, !tbaa !24
  %10 = tail call i32 @ossl_cmp_mock_srv_set_pollCount(ptr noundef %9, i32 noundef 3) #4
  %11 = load ptr, ptr %8, align 8, !tbaa !24
  %12 = tail call i32 @ossl_cmp_mock_srv_set_checkAfterTime(ptr noundef %11, i32 noundef 0) #4
  %13 = call i32 @OSSL_CMP_try_certreq(ptr noundef %7, i32 noundef 7, ptr noundef null, ptr noundef nonnull %1) #4
  %14 = call i32 @test_int_eq(ptr noundef nonnull @.str.14, i32 noundef 374, ptr noundef nonnull @.str.79, ptr noundef nonnull @.str.80, i32 noundef -1, i32 noundef %13) #4
  %15 = icmp ne i32 %14, 0
  %16 = load i32, ptr %1, align 4
  %17 = icmp eq i32 %16, 0
  %or.cond.i = select i1 %15, i1 %17, i1 false
  br i1 %or.cond.i, label %18, label %execute_try_certreq_poll_test.exit

18:                                               ; preds = %4
  %19 = call ptr @OSSL_CMP_CTX_get0_newCert(ptr noundef %7) #4
  %20 = call i32 @test_ptr_eq(ptr noundef nonnull @.str.14, i32 noundef 376, ptr noundef nonnull @.str.81, ptr noundef nonnull @.str.82, ptr noundef %19, ptr noundef null) #4
  %.not.i = icmp eq i32 %20, 0
  br i1 %.not.i, label %execute_try_certreq_poll_test.exit, label %21

21:                                               ; preds = %18
  %22 = call i32 @OSSL_CMP_try_certreq(ptr noundef %7, i32 noundef 7, ptr noundef null, ptr noundef nonnull %1) #4
  %23 = call i32 @test_int_eq(ptr noundef nonnull @.str.14, i32 noundef 377, ptr noundef nonnull @.str.79, ptr noundef nonnull @.str.80, i32 noundef -1, i32 noundef %22) #4
  %24 = icmp ne i32 %23, 0
  %25 = load i32, ptr %1, align 4
  %26 = icmp eq i32 %25, 0
  %or.cond3.i = select i1 %24, i1 %26, i1 false
  br i1 %or.cond3.i, label %27, label %execute_try_certreq_poll_test.exit

27:                                               ; preds = %21
  %28 = call ptr @OSSL_CMP_CTX_get0_newCert(ptr noundef %7) #4
  %29 = call i32 @test_ptr_eq(ptr noundef nonnull @.str.14, i32 noundef 379, ptr noundef nonnull @.str.81, ptr noundef nonnull @.str.82, ptr noundef %28, ptr noundef null) #4
  %.not13.i = icmp eq i32 %29, 0
  br i1 %.not13.i, label %execute_try_certreq_poll_test.exit, label %30

30:                                               ; preds = %27
  %31 = load i32, ptr %5, align 4, !tbaa !17
  %32 = call i32 @OSSL_CMP_try_certreq(ptr noundef %7, i32 noundef 7, ptr noundef null, ptr noundef null) #4
  %33 = call i32 @test_int_eq(ptr noundef nonnull @.str.14, i32 noundef 381, ptr noundef nonnull @.str.65, ptr noundef nonnull @.str.83, i32 noundef %31, i32 noundef %32) #4
  %.not14.i = icmp eq i32 %33, 0
  br i1 %.not14.i, label %execute_try_certreq_poll_test.exit, label %34

34:                                               ; preds = %30
  %35 = call ptr @OSSL_CMP_CTX_get0_newCert(ptr noundef %7) #4
  %36 = load ptr, ptr @client_cert, align 8, !tbaa !4
  %37 = call i32 @X509_cmp(ptr noundef %35, ptr noundef %36) #4
  %38 = call i32 @test_int_eq(ptr noundef nonnull @.str.14, i32 noundef 383, ptr noundef nonnull @.str.69, ptr noundef nonnull @.str.84, i32 noundef 0, i32 noundef %37) #4
  %39 = icmp ne i32 %38, 0
  %40 = zext i1 %39 to i32
  br label %execute_try_certreq_poll_test.exit

execute_try_certreq_poll_test.exit:               ; preds = %4, %18, %21, %27, %30, %34
  %41 = phi i32 [ 0, %30 ], [ 0, %27 ], [ 0, %21 ], [ 0, %18 ], [ 0, %4 ], [ %40, %34 ]
  call void @llvm.lifetime.end.p0(i64 4, ptr nonnull %1) #4
  %42 = load ptr, ptr %6, align 8, !tbaa !23
  call void @OSSL_CMP_CTX_free(ptr noundef %42) #4
  %43 = load ptr, ptr %8, align 8, !tbaa !24
  call void @ossl_cmp_mock_srv_free(ptr noundef %43) #4
  %44 = getelementptr inbounds nuw i8, ptr %2, i64 32
  %45 = load ptr, ptr %44, align 8, !tbaa !25
  call void @OPENSSL_sk_free(ptr noundef %45) #4
  call void @CRYPTO_free(ptr noundef nonnull %2, ptr noundef nonnull @.str.14, i32 noundef 51) #4
  br label %46

46:                                               ; preds = %0, %execute_try_certreq_poll_test.exit
  %.06 = phi i32 [ %41, %execute_try_certreq_poll_test.exit ], [ 0, %0 ]
  ret i32 %.06
}